target datalayout = "e-m:e-p270:32:32-p271:32:32-p272:64:64-i64:64-i128:128-f80:128-n8:16:32:64-S128"
target triple = "x86_64-pc-linux-gnu"

%union.union_sockaddr = type { %struct.sockaddr_storage, [1920 x i8] }
%struct.sockaddr_storage = type { i16, [118 x i8], i64 }
%union.__SOCKADDR_ARG = type { ptr }
%struct.RFile = type { %struct.RBasic, ptr }
%struct.RBasic = type { i64, i64 }
%struct.rb_io = type { i64, ptr, i32, i32, i32, i32, i64, ptr, %struct.rb_io_internal_buffer, %struct.rb_io_internal_buffer, i64, %struct.rb_io_encoding, ptr, %struct.rb_io_internal_buffer, ptr, i64, i32, i32, i64, i64, i64 }
%struct.rb_io_encoding = type { ptr, ptr, i32, i64 }
%struct.rb_io_internal_buffer = type <{ ptr, i32, i32, i32 }>
%struct.sockaddr = type { i16, [14 x i8] }
%struct.RString = type { %struct.RBasic, i64, %union.anon.15 }
%union.anon.15 = type { %struct.anon.16 }
%struct.anon.16 = type { ptr, %union.anon.17 }
%union.anon.17 = type { i64 }
%struct.anon.18 = type { [1 x i8] }

@.str.35 = private unnamed_addr constant [3 x i8] c", \00", align 1

; Function Attrs: inlinehint nounwind sspstrong willreturn memory(read) uwtable
define internal i64 @RB_FL_TEST_RAW(i64 noundef %0, i64 noundef %1) #9 {
  %3 = alloca i64, align 8
  %4 = alloca i64, align 8
  store i64 %0, ptr %3, align 8, !tbaa !6
  store i64 %1, ptr %4, align 8, !tbaa !6
  %5 = load i64, ptr %3, align 8, !tbaa !6
  %6 = inttoptr i64 %5 to ptr
  %7 = getelementptr inbounds nuw %struct.RBasic, ptr %6, i32 0, i32 0
  %8 = load i64, ptr %7, align 8, !tbaa !157
  %9 = load i64, ptr %4, align 8, !tbaa !6
  %10 = and i64 %8, %9
  ret i64 %10
}

; Function Attrs: inlinehint nounwind sspstrong willreturn memory(read) uwtable
define internal zeroext i1 @RB_FL_ANY_RAW(i64 noundef %0, i64 noundef %1) #9 {
  %3 = alloca i64, align 8
  %4 = alloca i64, align 8
  store i64 %0, ptr %3, align 8, !tbaa !6
  store i64 %1, ptr %4, align 8, !tbaa !6
  %5 = load i64, ptr %3, align 8, !tbaa !6
  %6 = load i64, ptr %4, align 8, !tbaa !6
  %7 = call i64 @RB_FL_TEST_RAW(i64 noundef %5, i64 noundef %6) #27
  %8 = icmp ne i64 %7, 0
  ret i1 %8
}

; Function Attrs: inlinehint nounwind sspstrong uwtable
define internal i64 @rbimpl_strlen(ptr noundef nonnull %0) #7 {
  %2 = alloca ptr, align 8
  store ptr %0, ptr %2, align 8, !tbaa !15
  %3 = load ptr, ptr %2, align 8, !tbaa !15
  %4 = call i64 @strlen(ptr noundef %3) #27
  ret i64 %4
}

; Function Attrs: inlinehint nounwind sspstrong willreturn memory(read, argmem: readwrite) uwtable
define internal void @rbimpl_rstring_getmem(ptr dead_on_unwind noalias writable sret(%struct.RString) align 8 %0, i64 noundef %1) #23 {
  %3 = alloca i64, align 8
  store i64 %1, ptr %3, align 8, !tbaa !6
  %4 = load i64, ptr %3, align 8, !tbaa !6
  %5 = call zeroext i1 @RB_FL_ANY_RAW(i64 noundef %4, i64 noundef 8192) #27
  br i1 %5, label %6, label %9

6:                                                ; preds = %2
  %7 = load i64, ptr %3, align 8, !tbaa !6
  %8 = inttoptr i64 %7 to ptr
  call void @llvm.memcpy.p0.p0.i64(ptr align 8 %0, ptr align 8 %8, i64 40, i1 false), !tbaa.struct !163
  br label %20

9:                                                ; preds = %2
  %10 = load i64, ptr %3, align 8, !tbaa !6
  %11 = call i64 @RSTRING_LEN(i64 noundef %10) #27
  %12 = getelementptr inbounds nuw %struct.RString, ptr %0, i32 0, i32 1
  store i64 %11, ptr %12, align 8, !tbaa !161
  %13 = load i64, ptr %3, align 8, !tbaa !6
  %14 = inttoptr i64 %13 to ptr
  %15 = getelementptr inbounds nuw %struct.RString, ptr %14, i32 0, i32 2
  %16 = getelementptr inbounds nuw %struct.anon.18, ptr %15, i32 0, i32 0
  %17 = getelementptr inbounds [1 x i8], ptr %16, i64 0, i64 0
  %18 = getelementptr inbounds nuw %struct.RString, ptr %0, i32 0, i32 2
  %19 = getelementptr inbounds nuw %struct.anon.16, ptr %18, i32 0, i32 0
  store ptr %17, ptr %19, align 8, !tbaa !105
  br label %20

20:                                               ; preds = %9, %6
  ret void
}

; Function Attrs: inlinehint nounwind sspstrong uwtable
define internal i64 @rbimpl_str_cat_cstr(i64 noundef %0, ptr noundef nonnull %1) #7 {
  %3 = alloca i64, align 8
  %4 = alloca ptr, align 8
  %5 = alloca i64, align 8
  store i64 %0, ptr %3, align 8, !tbaa !6
  store ptr %1, ptr %4, align 8, !tbaa !15
  call void @llvm.lifetime.start.p0(i64 8, ptr %5) #25
  %6 = load ptr, ptr %4, align 8, !tbaa !15
  %7 = call i64 @rbimpl_strlen(ptr noundef %6)
  store i64 %7, ptr %5, align 8, !tbaa !6
  %8 = load i64, ptr %3, align 8, !tbaa !6
  %9 = load ptr, ptr %4, align 8, !tbaa !15
  %10 = load i64, ptr %5, align 8, !tbaa !6
  %11 = call i64 @rb_str_cat(i64 noundef %8, ptr noundef %9, i64 noundef %10)
  call void @llvm.lifetime.end.p0(i64 8, ptr %5) #25
  ret i64 %11
}

; Function Attrs: inlinehint nounwind sspstrong uwtable
define internal ptr @RSTRING_PTR(i64 noundef %0) #7 {
  %2 = alloca i64, align 8
  %3 = alloca ptr, align 8
  %4 = alloca %struct.RString, align 8
  store i64 %0, ptr %2, align 8, !tbaa !6
  call void @llvm.lifetime.start.p0(i64 8, ptr %3) #25
  %5 = load i64, ptr %2, align 8, !tbaa !6
  call void @rbimpl_rstring_getmem(ptr dead_on_unwind writable sret(%struct.RString) align 8 %4, i64 noundef %5) #33
  %6 = getelementptr inbounds nuw %struct.RString, ptr %4, i32 0, i32 2
  %7 = getelementptr inbounds nuw %struct.anon.16, ptr %6, i32 0, i32 0
  %8 = load ptr, ptr %7, align 8, !tbaa !105
  store ptr %8, ptr %3, align 8, !tbaa !15
  %9 = load ptr, ptr %3, align 8, !tbaa !15
  call void @llvm.lifetime.end.p0(i64 8, ptr %3) #25
  ret ptr %9
}

; Function Attrs: inlinehint nounwind sspstrong willreturn memory(read) uwtable
define internal i64 @RSTRING_LEN(i64 noundef %0) #9 {
  %2 = alloca i64, align 8
  store i64 %0, ptr %2, align 8, !tbaa !6
  %3 = load i64, ptr %2, align 8, !tbaa !6
  %4 = inttoptr i64 %3 to ptr
  %5 = getelementptr inbounds nuw %struct.RString, ptr %4, i32 0, i32 1
  %6 = load i64, ptr %5, align 8, !tbaa !161
  ret i64 %6
}

; Function Attrs: nounwind sspstrong uwtable
define internal i64 @ip_inspect(i64 noundef %0) #0 {
  %2 = alloca i64, align 8
  %3 = alloca i64, align 8
  %4 = alloca ptr, align 8
  %5 = alloca %union.union_sockaddr, align 8
  %6 = alloca i32, align 4
  %7 = alloca i64, align 8
  %8 = alloca %union.__SOCKADDR_ARG, align 8
  %9 = alloca i64, align 8
  %10 = alloca [1024 x i8], align 16
  %11 = alloca [1024 x i8], align 16
  %12 = alloca i64, align 8
  %13 = alloca i8, align 1
  store i64 %0, ptr %2, align 8, !tbaa !6
  call void @llvm.lifetime.start.p0(i64 8, ptr %3) #25
  %14 = call i64 @rb_call_super(i32 noundef 0, ptr noundef null)
  store i64 %14, ptr %3, align 8, !tbaa !6
  call void @llvm.lifetime.start.p0(i64 8, ptr %4) #25
  %15 = load i64, ptr %2, align 8, !tbaa !6
  %16 = inttoptr i64 %15 to ptr
  %17 = getelementptr inbounds nuw %struct.RFile, ptr %16, i32 0, i32 1
  %18 = load ptr, ptr %17, align 8, !tbaa !121
  store ptr %18, ptr %4, align 8, !tbaa !125
  call void @llvm.lifetime.start.p0(i64 2048, ptr %5) #25
  call void @llvm.lifetime.start.p0(i64 4, ptr %6) #25
  store i32 2048, ptr %6, align 4, !tbaa !10
  call void @llvm.lifetime.start.p0(i64 8, ptr %7) #25
  %19 = load ptr, ptr %4, align 8, !tbaa !125
  %20 = icmp ne ptr %19, null
  br i1 %20, label %21, label %94

21:                                               ; preds = %1
  %22 = load ptr, ptr %4, align 8, !tbaa !125
  %23 = getelementptr inbounds nuw %struct.rb_io, ptr %22, i32 0, i32 2
  %24 = load i32, ptr %23, align 8, !tbaa !126
  %25 = icmp sge i32 %24, 0
  br i1 %25, label %26, label %94

26:                                               ; preds = %21
  %27 = load ptr, ptr %4, align 8, !tbaa !125
  %28 = getelementptr inbounds nuw %struct.rb_io, ptr %27, i32 0, i32 2
  %29 = load i32, ptr %28, align 8, !tbaa !126
  store ptr %5, ptr %8, align 8, !tbaa !105
  %30 = getelementptr inbounds nuw %union.__SOCKADDR_ARG, ptr %8, i32 0, i32 0
  %31 = load ptr, ptr %30, align 8
  %32 = call i32 @getsockname(i32 noundef %29, ptr %31, ptr noundef %6) #25
  %33 = icmp sge i32 %32, 0
  br i1 %33, label %34, label %94

34:                                               ; preds = %26
  %35 = getelementptr inbounds nuw %struct.sockaddr, ptr %5, i32 0, i32 0
  %36 = load i16, ptr %35, align 8, !tbaa !105
  %37 = zext i16 %36 to i32
  %38 = call i64 @rsock_intern_family(i32 noundef %37)
  store i64 %38, ptr %7, align 8, !tbaa !6
  %39 = icmp ne i64 %38, 0
  br i1 %39, label %40, label %94

40:                                               ; preds = %34
  call void @llvm.lifetime.start.p0(i64 8, ptr %9) #25
  %41 = load i64, ptr %7, align 8, !tbaa !6
  %42 = call i64 @rb_id2str(i64 noundef %41)
  store i64 %42, ptr %9, align 8, !tbaa !6
  call void @llvm.lifetime.start.p0(i64 1024, ptr %10) #25
  call void @llvm.lifetime.start.p0(i64 1024, ptr %11) #25
  call void @llvm.lifetime.start.p0(i64 8, ptr %12) #25
  %43 = load i64, ptr %3, align 8, !tbaa !6
  %44 = call i64 @RSTRING_LEN(i64 noundef %43) #27
  store i64 %44, ptr %12, align 8, !tbaa !6
  call void @llvm.lifetime.start.p0(i64 1, ptr %13) #25
  %45 = load i64, ptr %12, align 8, !tbaa !6
  %46 = icmp sgt i64 %45, 1
  br i1 %46, label %47, label %59

47:                                               ; preds = %40
  %48 = load i64, ptr %3, align 8, !tbaa !6
  %49 = call ptr @RSTRING_PTR(i64 noundef %48)
  %50 = load i64, ptr %12, align 8, !tbaa !6
  %51 = sub nsw i64 %50, 1
  %52 = getelementptr inbounds i8, ptr %49, i64 %51
  %53 = load i8, ptr %52, align 1, !tbaa !105
  %54 = sext i8 %53 to i32
  %55 = icmp eq i32 %54, 62
  br i1 %55, label %56, label %59

56:                                               ; preds = %47
  %57 = load i64, ptr %12, align 8, !tbaa !6
  %58 = add nsw i64 %57, -1
  store i64 %58, ptr %12, align 8, !tbaa !6
  br label %60

59:                                               ; preds = %47, %40
  br label %60

60:                                               ; preds = %59, %56
  %61 = phi i32 [ 62, %56 ], [ 0, %59 ]
  %62 = trunc i32 %61 to i8
  store i8 %62, ptr %13, align 1, !tbaa !105
  %63 = load i64, ptr %3, align 8, !tbaa !6
  %64 = load i64, ptr %12, align 8, !tbaa !6
  %65 = call i64 @rb_str_subseq(i64 noundef %63, i64 noundef 0, i64 noundef %64)
  store i64 %65, ptr %3, align 8, !tbaa !6
  %66 = load i64, ptr %3, align 8, !tbaa !6
  %67 = call i64 @rbimpl_str_cat_cstr(i64 noundef %66, ptr noundef @.str.35)
  %68 = load i64, ptr %3, align 8, !tbaa !6
  %69 = load i64, ptr %9, align 8, !tbaa !6
  %70 = call i64 @rb_str_append(i64 noundef %68, i64 noundef %69)
  %71 = load i32, ptr %6, align 4, !tbaa !10
  %72 = getelementptr inbounds [1024 x i8], ptr %10, i64 0, i64 0
  %73 = getelementptr inbounds [1024 x i8], ptr %11, i64 0, i64 0
  %74 = call i32 @rb_getnameinfo(ptr noundef %5, i32 noundef %71, ptr noundef %72, i64 noundef 1024, ptr noundef %73, i64 noundef 1024, i32 noundef 3)
  %75 = icmp ne i32 %74, 0
  br i1 %75, label %87, label %76

76:                                               ; preds = %60
  %77 = load i64, ptr %3, align 8, !tbaa !6
  %78 = call i64 @rbimpl_str_cat_cstr(i64 noundef %77, ptr noundef @.str.35)
  %79 = load i64, ptr %3, align 8, !tbaa !6
  %80 = getelementptr inbounds [1024 x i8], ptr %10, i64 0, i64 0
  %81 = call i64 @rb_str_cat_cstr(i64 noundef %79, ptr noundef %80)
  %82 = load i64, ptr %3, align 8, !tbaa !6
  %83 = call i64 @rbimpl_str_cat_cstr(i64 noundef %82, ptr noundef @.str.35)
  %84 = load i64, ptr %3, align 8, !tbaa !6
  %85 = getelementptr inbounds [1024 x i8], ptr %11, i64 0, i64 0
  %86 = call i64 @rb_str_cat_cstr(i64 noundef %84, ptr noundef %85)
  br label %87

87:                                               ; preds = %76, %60
  %88 = load i8, ptr %13, align 1, !tbaa !105
  %89 = icmp ne i8 %88, 0
  br i1 %89, label %90, label %93

90:                                               ; preds = %87
  %91 = load i64, ptr %3, align 8, !tbaa !6
  %92 = call i64 @rb_str_cat(i64 noundef %91, ptr noundef %13, i64 noundef 1)
  br label %93

93:                                               ; preds = %90, %87
  call void @llvm.lifetime.end.p0(i64 1, ptr %13) #25
  call void @llvm.lifetime.end.p0(i64 8, ptr %12) #25
  call void @llvm.lifetime.end.p0(i64 1024, ptr %11) #25
  call void @llvm.lifetime.end.p0(i64 1024, ptr %10) #25
  call void @llvm.lifetime.end.p0(i64 8, ptr %9) #25
  br label %94

94:                                               ; preds = %93, %34, %26, %21, %1
  %95 = load i64, ptr %3, align 8, !tbaa !6
  call void @llvm.lifetime.end.p0(i64 8, ptr %7) #25
  call void @llvm.lifetime.end.p0(i64 4, ptr %6) #25
  call void @llvm.lifetime.end.p0(i64 2048, ptr %5) #25
  call void @llvm.lifetime.end.p0(i64 8, ptr %4) #25
  call void @llvm.lifetime.end.p0(i64 8, ptr %3) #25
  ret i64 %95
}