; Function Attrs: nounwind sspstrong uwtable
define internal i64 @ip_inspect(i64 noundef %0) #0 {
  %2 = alloca %union.union_sockaddr, align 8
  %3 = alloca i32, align 4
  %4 = alloca [1024 x i8], align 16
  %5 = alloca [1024 x i8], align 16
  %6 = alloca i8, align 1
  %7 = tail call i64 @rb_call_super(i32 noundef 0, ptr noundef null) #19
  %8 = inttoptr i64 %0 to ptr
  %9 = getelementptr inbounds nuw i8, ptr %8, i64 16
  %10 = load ptr, ptr %9, align 8, !tbaa !108
  call void @llvm.lifetime.start.p0(i64 2048, ptr nonnull %2) #19
  call void @llvm.lifetime.start.p0(i64 4, ptr nonnull %3) #19
  store i32 2048, ptr %3, align 4, !tbaa !6
  %.not = icmp eq ptr %10, null
  br i1 %.not, label %54, label %11

11:                                               ; preds = %1
  %12 = getelementptr inbounds nuw i8, ptr %10, i64 16
  %13 = load i32, ptr %12, align 8, !tbaa !111
  %14 = icmp sgt i32 %13, -1
  br i1 %14, label %15, label %54

15:                                               ; preds = %11
  %16 = call i32 @getsockname(i32 noundef %13, ptr nonnull %2, ptr noundef nonnull %3) #19
  %17 = icmp sgt i32 %16, -1
  br i1 %17, label %18, label %54

18:                                               ; preds = %15
  %19 = load i16, ptr %2, align 8, !tbaa !96
  %20 = zext i16 %19 to i32
  %21 = call i64 @rsock_intern_family(i32 noundef %20) #19
  %.not25 = icmp eq i64 %21, 0
  br i1 %.not25, label %54, label %22

22:                                               ; preds = %18
  %23 = call i64 @rb_id2str(i64 noundef %21) #19
  call void @llvm.lifetime.start.p0(i64 1024, ptr nonnull %4) #19
  call void @llvm.lifetime.start.p0(i64 1024, ptr nonnull %5) #19
  %24 = inttoptr i64 %7 to ptr
  %25 = getelementptr inbounds nuw i8, ptr %24, i64 16
  %26 = load i64, ptr %25, align 8, !tbaa !118
  call void @llvm.lifetime.start.p0(i64 1, ptr nonnull %6) #19
  %27 = icmp sgt i64 %26, 1
  br i1 %27, label %28, label %38

28:                                               ; preds = %22
  %29 = load i64, ptr %24, align 8, !tbaa !77, !noalias !120
  %30 = and i64 %29, 8192
  %.not.i.i = icmp eq i64 %30, 0
  %31 = getelementptr inbounds nuw i8, ptr %24, i64 24
  br i1 %.not.i.i, label %RSTRING_PTR.exit, label %32

32:                                               ; preds = %28
  %.sroa.2.0.copyload.i = load ptr, ptr %31, align 8
  br label %RSTRING_PTR.exit

RSTRING_PTR.exit:                                 ; preds = %28, %32
  %.sroa.2.0.i = phi ptr [ %.sroa.2.0.copyload.i, %32 ], [ %31, %28 ]
  %33 = getelementptr i8, ptr %.sroa.2.0.i, i64 %26
  %34 = getelementptr i8, ptr %33, i64 -1
  %35 = load i8, ptr %34, align 1, !tbaa !96
  %36 = icmp eq i8 %35, 62
  %37 = sext i1 %36 to i64
  %spec.select = add nsw i64 %26, %37
  %spec.select28 = select i1 %36, i8 62, i8 0
  br label %38

38:                                               ; preds = %RSTRING_PTR.exit, %22
  %.0 = phi i64 [ %26, %22 ], [ %spec.select, %RSTRING_PTR.exit ]
  %39 = phi i8 [ 0, %22 ], [ %spec.select28, %RSTRING_PTR.exit ]
  store i8 %39, ptr %6, align 1, !tbaa !96
  %40 = call i64 @rb_str_subseq(i64 noundef %7, i64 noundef 0, i64 noundef %.0) #19
  %41 = call i64 @rb_str_cat(i64 noundef %40, ptr noundef nonnull @.str.35, i64 noundef 2) #19
  %42 = call i64 @rb_str_append(i64 noundef %40, i64 noundef %23) #19
  %43 = load i32, ptr %3, align 4, !tbaa !6
  %44 = call i32 @rb_getnameinfo(ptr noundef nonnull %2, i32 noundef %43, ptr noundef nonnull %4, i64 noundef 1024, ptr noundef nonnull %5, i64 noundef 1024, i32 noundef 3) #19
  %.not26 = icmp eq i32 %44, 0
  br i1 %.not26, label %45, label %50

45:                                               ; preds = %38
  %46 = call i64 @rb_str_cat(i64 noundef %40, ptr noundef nonnull @.str.35, i64 noundef 2) #19
  %47 = call i64 @rb_str_cat_cstr(i64 noundef %40, ptr noundef nonnull %4) #19
  %48 = call i64 @rb_str_cat(i64 noundef %40, ptr noundef nonnull @.str.35, i64 noundef 2) #19
  %49 = call i64 @rb_str_cat_cstr(i64 noundef %40, ptr noundef nonnull %5) #19
  br label %50

50:                                               ; preds = %45, %38
  %.not27 = icmp eq i8 %39, 0
  br i1 %.not27, label %53, label %51

51:                                               ; preds = %50
  %52 = call i64 @rb_str_cat(i64 noundef %40, ptr noundef nonnull %6, i64 noundef 1) #19
  br label %53

53:                                               ; preds = %51, %50
  call void @llvm.lifetime.end.p0(i64 1, ptr nonnull %6) #19
  call void @llvm.lifetime.end.p0(i64 1024, ptr nonnull %5) #19
  call void @llvm.lifetime.end.p0(i64 1024, ptr nonnull %4) #19
  br label %54

54:                                               ; preds = %53, %18, %15, %11, %1
  %.020 = phi i64 [ %40, %53 ], [ %7, %18 ], [ %7, %15 ], [ %7, %11 ], [ %7, %1 ]
  call void @llvm.lifetime.end.p0(i64 4, ptr nonnull %3) #19
  call void @llvm.lifetime.end.p0(i64 2048, ptr nonnull %2) #19
  ret i64 %.020
}